target datalayout = "e-m:e-p270:32:32-p271:32:32-p272:64:64-i64:64-i128:128-f80:128-n8:16:32:64-S128"
target triple = "x86_64-pc-linux-gnu"

%union.pthread_mutex_t = type { %struct.__pthread_mutex_s }
%struct.__pthread_mutex_s = type { i32, i32, i32, i32, i32, i16, i16, %struct.__pthread_internal_list }
%struct.__pthread_internal_list = type { ptr, ptr }
%struct.slurm_bb_ops = type { ptr, ptr, ptr, ptr, ptr, ptr, ptr, ptr, ptr, ptr, ptr, ptr, ptr, ptr, ptr, ptr, ptr, ptr, ptr, ptr }
%struct.timeval = type { i64, i64 }

@g_context_lock = internal global %union.pthread_mutex_t zeroinitializer, align 8
@.str.1 = private unnamed_addr constant [29 x i8] c"%s: pthread_mutex_lock(): %m\00", align 1
@g_context_cnt = internal global i32 -1, align 4
@ops = internal global ptr null, align 8
@.str.8 = private unnamed_addr constant [31 x i8] c"%s: pthread_mutex_unlock(): %m\00", align 1
@__func__.bb_g_get_status = private unnamed_addr constant [16 x i8] c"bb_g_get_status\00", align 1

; Function Attrs: nounwind uwtable
define dso_local ptr @bb_g_get_status(i32 noundef %0, ptr noundef %1, i32 noundef %2, i32 noundef %3) #0 {
  %5 = alloca i32, align 4
  %6 = alloca ptr, align 8
  %7 = alloca i32, align 4
  %8 = alloca i32, align 4
  %9 = alloca %struct.timeval, align 8
  %10 = alloca %struct.timeval, align 8
  %11 = alloca [20 x i8], align 16
  %12 = alloca i64, align 8
  %13 = alloca i32, align 4
  %14 = alloca ptr, align 8
  %15 = alloca ptr, align 8
  %16 = alloca i32, align 4
  %17 = alloca i32, align 4
  store i32 %0, ptr %5, align 4
  store ptr %1, ptr %6, align 8
  store i32 %2, ptr %7, align 4
  store i32 %3, ptr %8, align 4
  call void @llvm.lifetime.start.p0(i64 16, ptr %9) #7
  call void @llvm.lifetime.start.p0(i64 16, ptr %10) #7
  call void @llvm.lifetime.start.p0(i64 20, ptr %11) #7
  call void @llvm.memset.p0.i64(ptr align 16 %11, i8 0, i64 20, i1 false)
  call void @llvm.lifetime.start.p0(i64 8, ptr %12) #7
  call void @llvm.lifetime.start.p0(i64 4, ptr %13) #7
  call void @llvm.lifetime.start.p0(i64 8, ptr %14) #7
  store ptr null, ptr %14, align 8
  call void @llvm.lifetime.start.p0(i64 8, ptr %15) #7
  %18 = call i32 @gettimeofday(ptr noundef %9, ptr noundef null) #7
  br label %19

19:                                               ; preds = %4
  call void @llvm.lifetime.start.p0(i64 4, ptr %16) #7
  %20 = call i32 @pthread_mutex_lock(ptr noundef @g_context_lock) #7
  store i32 %20, ptr %16, align 4
  %21 = load i32, ptr %16, align 4
  %22 = icmp ne i32 %21, 0
  br i1 %22, label %23, label %26

23:                                               ; preds = %19
  %24 = load i32, ptr %16, align 4
  %25 = call ptr @__errno_location() #8
  store i32 %24, ptr %25, align 4
  call void (ptr, ...) @fatal_abort(ptr noundef @.str.1, ptr noundef @__func__.bb_g_get_status) #9
  unreachable

26:                                               ; preds = %19
  call void @llvm.lifetime.end.p0(i64 4, ptr %16) #7
  br label %27

27:                                               ; preds = %26
  br label %28

28:                                               ; preds = %27
  store i32 0, ptr %13, align 4
  br label %29

29:                                               ; preds = %52, %28
  %30 = load i32, ptr %13, align 4
  %31 = load i32, ptr @g_context_cnt, align 4
  %32 = icmp slt i32 %30, %31
  br i1 %32, label %33, label %55

33:                                               ; preds = %29
  %34 = load ptr, ptr @ops, align 8
  %35 = load i32, ptr %13, align 4
  %36 = sext i32 %35 to i64
  %37 = getelementptr inbounds %struct.slurm_bb_ops, ptr %34, i64 %36
  %38 = getelementptr inbounds nuw %struct.slurm_bb_ops, ptr %37, i32 0, i32 3
  %39 = load ptr, ptr %38, align 8
  %40 = load i32, ptr %5, align 4
  %41 = load ptr, ptr %6, align 8
  %42 = load i32, ptr %7, align 4
  %43 = load i32, ptr %8, align 4
  %44 = call ptr %39(i32 noundef %40, ptr noundef %41, i32 noundef %42, i32 noundef %43)
  store ptr %44, ptr %15, align 8
  %45 = load ptr, ptr %14, align 8
  %46 = icmp ne ptr %45, null
  br i1 %46, label %47, label %49

47:                                               ; preds = %33
  %48 = load ptr, ptr %15, align 8
  call void @_xstrcat(ptr noundef %14, ptr noundef %48)
  call void @slurm_xfree(ptr noundef %15)
  br label %51

49:                                               ; preds = %33
  %50 = load ptr, ptr %15, align 8
  store ptr %50, ptr %14, align 8
  br label %51

51:                                               ; preds = %49, %47
  br label %52

52:                                               ; preds = %51
  %53 = load i32, ptr %13, align 4
  %54 = add nsw i32 %53, 1
  store i32 %54, ptr %13, align 4
  br label %29, !llvm.loop !15

55:                                               ; preds = %29
  br label %56

56:                                               ; preds = %55
  call void @llvm.lifetime.start.p0(i64 4, ptr %17) #7
  %57 = call i32 @pthread_mutex_unlock(ptr noundef @g_context_lock) #7
  store i32 %57, ptr %17, align 4
  %58 = load i32, ptr %17, align 4
  %59 = icmp ne i32 %58, 0
  br i1 %59, label %60, label %63

60:                                               ; preds = %56
  %61 = load i32, ptr %17, align 4
  %62 = call ptr @__errno_location() #8
  store i32 %61, ptr %62, align 4
  call void (ptr, ...) @fatal_abort(ptr noundef @.str.8, ptr noundef @__func__.bb_g_get_status) #9
  unreachable

63:                                               ; preds = %56
  call void @llvm.lifetime.end.p0(i64 4, ptr %17) #7
  br label %64

64:                                               ; preds = %63
  br label %65

65:                                               ; preds = %64
  br label %66

66:                                               ; preds = %65
  %67 = call i32 @gettimeofday(ptr noundef %10, ptr noundef null) #7
  %68 = getelementptr inbounds [20 x i8], ptr %11, i64 0, i64 0
  call void @slurm_diff_tv_str(ptr noundef %9, ptr noundef %10, ptr noundef %68, i32 noundef 20, ptr noundef @__func__.bb_g_get_status, i64 noundef 0, ptr noundef %12)
  br label %69

69:                                               ; preds = %66
  br label %70

70:                                               ; preds = %69
  %71 = load ptr, ptr %14, align 8
  call void @llvm.lifetime.end.p0(i64 8, ptr %15) #7
  call void @llvm.lifetime.end.p0(i64 8, ptr %14) #7
  call void @llvm.lifetime.end.p0(i64 4, ptr %13) #7
  call void @llvm.lifetime.end.p0(i64 8, ptr %12) #7
  call void @llvm.lifetime.end.p0(i64 20, ptr %11) #7
  call void @llvm.lifetime.end.p0(i64 16, ptr %10) #7
  call void @llvm.lifetime.end.p0(i64 16, ptr %9) #7
  ret ptr %71
}