; Function Attrs: nounwind uwtable
define dso_local ptr @bb_g_get_status(i32 noundef %0, ptr noundef %1, i32 noundef %2, i32 noundef %3) local_unnamed_addr #0 {
  %5 = alloca %struct.timeval, align 8
  %6 = alloca %struct.timeval, align 8
  %7 = alloca [20 x i8], align 16
  %8 = alloca i64, align 8
  %9 = alloca ptr, align 8
  %10 = alloca ptr, align 8
  call void @llvm.lifetime.start.p0(i64 16, ptr nonnull %5) #11
  call void @llvm.lifetime.start.p0(i64 16, ptr nonnull %6) #11
  call void @llvm.lifetime.start.p0(i64 20, ptr nonnull %7) #11
  call void @llvm.memset.p0.i64(ptr noundef nonnull align 16 dereferenceable(20) %7, i8 0, i64 20, i1 false)
  call void @llvm.lifetime.start.p0(i64 8, ptr nonnull %8) #11
  call void @llvm.lifetime.start.p0(i64 8, ptr nonnull %9) #11
  store ptr null, ptr %9, align 8
  call void @llvm.lifetime.start.p0(i64 8, ptr nonnull %10) #11
  %11 = call i32 @gettimeofday(ptr noundef nonnull %5, ptr noundef null) #11
  %12 = tail call i32 @pthread_mutex_lock(ptr noundef nonnull @g_context_lock) #11
  %.not = icmp eq i32 %12, 0
  br i1 %.not, label %.preheader, label %15

.preheader:                                       ; preds = %4
  %13 = load i32, ptr @g_context_cnt, align 4
  %14 = icmp sgt i32 %13, 0
  br i1 %14, label %.lr.ph, label %._crit_edge

15:                                               ; preds = %4
  %16 = tail call ptr @__errno_location() #12
  store i32 %12, ptr %16, align 4
  tail call void (ptr, ...) @fatal_abort(ptr noundef nonnull @.str.1, ptr noundef nonnull @__func__.bb_g_get_status) #13
  unreachable

.lr.ph:                                           ; preds = %.preheader, %24
  %indvars.iv = phi i64 [ %indvars.iv.next, %24 ], [ 0, %.preheader ]
  %17 = load ptr, ptr @ops, align 8
  %18 = getelementptr inbounds nuw %struct.slurm_bb_ops, ptr %17, i64 %indvars.iv, i32 3
  %19 = load ptr, ptr %18, align 8
  %20 = call ptr %19(i32 noundef %0, ptr noundef %1, i32 noundef %2, i32 noundef %3) #11
  store ptr %20, ptr %10, align 8
  %21 = load ptr, ptr %9, align 8
  %.not13 = icmp eq ptr %21, null
  br i1 %.not13, label %23, label %22

22:                                               ; preds = %.lr.ph
  call void @_xstrcat(ptr noundef nonnull %9, ptr noundef %20) #11
  call void @slurm_xfree(ptr noundef nonnull %10) #11
  br label %24

23:                                               ; preds = %.lr.ph
  store ptr %20, ptr %9, align 8
  br label %24

24:                                               ; preds = %22, %23
  %indvars.iv.next = add nuw nsw i64 %indvars.iv, 1
  %25 = load i32, ptr @g_context_cnt, align 4
  %26 = sext i32 %25 to i64
  %27 = icmp slt i64 %indvars.iv.next, %26
  br i1 %27, label %.lr.ph, label %._crit_edge, !llvm.loop !13

._crit_edge:                                      ; preds = %24, %.preheader
  %28 = call i32 @pthread_mutex_unlock(ptr noundef nonnull @g_context_lock) #11
  %.not12 = icmp eq i32 %28, 0
  br i1 %.not12, label %31, label %29

29:                                               ; preds = %._crit_edge
  %30 = tail call ptr @__errno_location() #12
  store i32 %28, ptr %30, align 4
  call void (ptr, ...) @fatal_abort(ptr noundef nonnull @.str.8, ptr noundef nonnull @__func__.bb_g_get_status) #13
  unreachable

31:                                               ; preds = %._crit_edge
  %32 = call i32 @gettimeofday(ptr noundef nonnull %6, ptr noundef null) #11
  call void @slurm_diff_tv_str(ptr noundef nonnull %5, ptr noundef nonnull %6, ptr noundef nonnull %7, i32 noundef 20, ptr noundef nonnull @__func__.bb_g_get_status, i64 noundef 0, ptr noundef nonnull %8) #11
  %33 = load ptr, ptr %9, align 8
  call void @llvm.lifetime.end.p0(i64 8, ptr nonnull %10) #11
  call void @llvm.lifetime.end.p0(i64 8, ptr nonnull %9) #11
  call void @llvm.lifetime.end.p0(i64 8, ptr nonnull %8) #11
  call void @llvm.lifetime.end.p0(i64 20, ptr nonnull %7) #11
  call void @llvm.lifetime.end.p0(i64 16, ptr nonnull %6) #11
  call void @llvm.lifetime.end.p0(i64 16, ptr nonnull %5) #11
  ret ptr %33
}